target datalayout = "e-m:e-p270:32:32-p271:32:32-p272:64:64-i64:64-i128:128-f80:128-n8:16:32:64-S128"
target triple = "x86_64-pc-linux-gnu"

%struct.redisCommand = type { ptr, ptr, ptr, ptr, i32, ptr, ptr, i32, ptr, i32, ptr, i32, ptr, i32, i64, i64, ptr, i32, ptr, i32, ptr, ptr, i64, i64, i64, i64, i32, ptr, ptr, %struct.keySpec, ptr, ptr, ptr }
%struct.keySpec = type { ptr, i64, i32, %union.anon.0, i32, %union.anon.3 }
%union.anon.0 = type { %struct.anon.2 }
%struct.anon.2 = type { ptr, i32 }
%union.anon.3 = type { %struct.anon.4 }
%struct.anon.4 = type { i32, i32, i32 }
%struct.sdshdr8 = type { i8, i8, i8, [0 x i8] }
%struct.sdshdr16 = type <{ i16, i16, i8, [0 x i8] }>
%struct.sdshdr32 = type <{ i32, i32, i8, [0 x i8] }>
%struct.sdshdr64 = type <{ i64, i64, i8, [0 x i8] }>

; Function Attrs: inlinehint nounwind uwtable
define internal i64 @sdslen(ptr noundef %0) #7 {
  %2 = alloca i64, align 8
  %3 = alloca ptr, align 8
  %4 = alloca i8, align 1
  %5 = alloca i32, align 4
  store ptr %0, ptr %3, align 8, !tbaa !40
  call void @llvm.lifetime.start.p0(i64 1, ptr %4) #10
  %6 = load ptr, ptr %3, align 8, !tbaa !40
  %7 = getelementptr inbounds i8, ptr %6, i64 -1
  %8 = load i8, ptr %7, align 1, !tbaa !100
  store i8 %8, ptr %4, align 1, !tbaa !100
  %9 = load i8, ptr %4, align 1, !tbaa !100
  %10 = zext i8 %9 to i32
  %11 = and i32 %10, 7
  switch i32 %11, label %40 [
    i32 0, label %12
    i32 1, label %17
    i32 2, label %23
    i32 3, label %29
    i32 4, label %35
  ]

12:                                               ; preds = %1
  %13 = load i8, ptr %4, align 1, !tbaa !100
  %14 = zext i8 %13 to i32
  %15 = ashr i32 %14, 3
  %16 = sext i32 %15 to i64
  store i64 %16, ptr %2, align 8
  store i32 1, ptr %5, align 4
  br label %41

17:                                               ; preds = %1
  %18 = load ptr, ptr %3, align 8, !tbaa !40
  %19 = getelementptr inbounds i8, ptr %18, i64 -3
  %20 = getelementptr inbounds nuw %struct.sdshdr8, ptr %19, i32 0, i32 0
  %21 = load i8, ptr %20, align 1, !tbaa !100
  %22 = zext i8 %21 to i64
  store i64 %22, ptr %2, align 8
  store i32 1, ptr %5, align 4
  br label %41

23:                                               ; preds = %1
  %24 = load ptr, ptr %3, align 8, !tbaa !40
  %25 = getelementptr inbounds i8, ptr %24, i64 -5
  %26 = getelementptr inbounds nuw %struct.sdshdr16, ptr %25, i32 0, i32 0
  %27 = load i16, ptr %26, align 1, !tbaa !101
  %28 = zext i16 %27 to i64
  store i64 %28, ptr %2, align 8
  store i32 1, ptr %5, align 4
  br label %41

29:                                               ; preds = %1
  %30 = load ptr, ptr %3, align 8, !tbaa !40
  %31 = getelementptr inbounds i8, ptr %30, i64 -9
  %32 = getelementptr inbounds nuw %struct.sdshdr32, ptr %31, i32 0, i32 0
  %33 = load i32, ptr %32, align 1, !tbaa !48
  %34 = zext i32 %33 to i64
  store i64 %34, ptr %2, align 8
  store i32 1, ptr %5, align 4
  br label %41

35:                                               ; preds = %1
  %36 = load ptr, ptr %3, align 8, !tbaa !40
  %37 = getelementptr inbounds i8, ptr %36, i64 -17
  %38 = getelementptr inbounds nuw %struct.sdshdr64, ptr %37, i32 0, i32 0
  %39 = load i64, ptr %38, align 1, !tbaa !44
  store i64 %39, ptr %2, align 8
  store i32 1, ptr %5, align 4
  br label %41

40:                                               ; preds = %1
  store i64 0, ptr %2, align 8
  store i32 1, ptr %5, align 4
  br label %41

41:                                               ; preds = %40, %35, %29, %23, %17, %12
  call void @llvm.lifetime.end.p0(i64 1, ptr %4) #10
  %42 = load i64, ptr %2, align 8
  ret i64 %42
}

; Function Attrs: nounwind uwtable
define dso_local void @latencyAllCommandsFillCDF(ptr noundef %0, ptr noundef %1, ptr noundef %2) #0 {
  %4 = alloca ptr, align 8
  %5 = alloca ptr, align 8
  %6 = alloca ptr, align 8
  %7 = alloca ptr, align 8
  %8 = alloca ptr, align 8
  %9 = alloca ptr, align 8
  store ptr %0, ptr %4, align 8, !tbaa !77
  store ptr %1, ptr %5, align 8, !tbaa !5
  store ptr %2, ptr %6, align 8, !tbaa !87
  call void @llvm.lifetime.start.p0(i64 8, ptr %7) #10
  %10 = load ptr, ptr %5, align 8, !tbaa !5
  %11 = call ptr @dictGetSafeIterator(ptr noundef %10)
  store ptr %11, ptr %7, align 8, !tbaa !52
  call void @llvm.lifetime.start.p0(i64 8, ptr %8) #10
  call void @llvm.lifetime.start.p0(i64 8, ptr %9) #10
  br label %12

12:                                               ; preds = %50, %3
  %13 = load ptr, ptr %7, align 8, !tbaa !52
  %14 = call ptr @dictNext(ptr noundef %13)
  store ptr %14, ptr %8, align 8, !tbaa !54
  %15 = icmp ne ptr %14, null
  br i1 %15, label %16, label %51

16:                                               ; preds = %12
  %17 = load ptr, ptr %8, align 8, !tbaa !54
  %18 = call ptr @dictGetVal(ptr noundef %17)
  store ptr %18, ptr %9, align 8, !tbaa !89
  %19 = load ptr, ptr %9, align 8, !tbaa !89
  %20 = getelementptr inbounds nuw %struct.redisCommand, ptr %19, i32 0, i32 28
  %21 = load ptr, ptr %20, align 8, !tbaa !91
  %22 = icmp ne ptr %21, null
  br i1 %22, label %23, label %39

23:                                               ; preds = %16
  %24 = load ptr, ptr %4, align 8, !tbaa !77
  %25 = load ptr, ptr %9, align 8, !tbaa !89
  %26 = getelementptr inbounds nuw %struct.redisCommand, ptr %25, i32 0, i32 27
  %27 = load ptr, ptr %26, align 8, !tbaa !96
  %28 = load ptr, ptr %9, align 8, !tbaa !89
  %29 = getelementptr inbounds nuw %struct.redisCommand, ptr %28, i32 0, i32 27
  %30 = load ptr, ptr %29, align 8, !tbaa !96
  %31 = call i64 @sdslen(ptr noundef %30)
  call void @addReplyBulkCBuffer(ptr noundef %24, ptr noundef %27, i64 noundef %31)
  %32 = load ptr, ptr %4, align 8, !tbaa !77
  %33 = load ptr, ptr %9, align 8, !tbaa !89
  %34 = getelementptr inbounds nuw %struct.redisCommand, ptr %33, i32 0, i32 28
  %35 = load ptr, ptr %34, align 8, !tbaa !91
  call void @fillCommandCDF(ptr noundef %32, ptr noundef %35)
  %36 = load ptr, ptr %6, align 8, !tbaa !87
  %37 = load i32, ptr %36, align 4, !tbaa !48
  %38 = add nsw i32 %37, 1
  store i32 %38, ptr %36, align 4, !tbaa !48
  br label %39

39:                                               ; preds = %23, %16
  %40 = load ptr, ptr %9, align 8, !tbaa !89
  %41 = getelementptr inbounds nuw %struct.redisCommand, ptr %40, i32 0, i32 20
  %42 = load ptr, ptr %41, align 8, !tbaa !97
  %43 = icmp ne ptr %42, null
  br i1 %43, label %44, label %50

44:                                               ; preds = %39
  %45 = load ptr, ptr %4, align 8, !tbaa !77
  %46 = load ptr, ptr %9, align 8, !tbaa !89
  %47 = getelementptr inbounds nuw %struct.redisCommand, ptr %46, i32 0, i32 30
  %48 = load ptr, ptr %47, align 8, !tbaa !98
  %49 = load ptr, ptr %6, align 8, !tbaa !87
  call void @latencyAllCommandsFillCDF(ptr noundef %45, ptr noundef %48, ptr noundef %49)
  br label %50

50:                                               ; preds = %44, %39
  br label %12, !llvm.loop !99

51:                                               ; preds = %12
  %52 = load ptr, ptr %7, align 8, !tbaa !52
  call void @dictReleaseIterator(ptr noundef %52)
  call void @llvm.lifetime.end.p0(i64 8, ptr %9) #10
  call void @llvm.lifetime.end.p0(i64 8, ptr %8) #10
  call void @llvm.lifetime.end.p0(i64 8, ptr %7) #10
  ret void
}