; Function Attrs: nounwind uwtable
define dso_local void @latencyAllCommandsFillCDF(ptr noundef %0, ptr noundef %1, ptr noundef captures(none) %2) local_unnamed_addr #2 {
  %4 = tail call ptr @dictGetSafeIterator(ptr noundef %1) #14
  %5 = tail call ptr @dictNext(ptr noundef %4) #14
  %.not17 = icmp eq ptr %5, null
  br i1 %.not17, label %._crit_edge, label %.lr.ph

.lr.ph:                                           ; preds = %3, %44
  %6 = phi ptr [ %45, %44 ], [ %5, %3 ]
  %7 = tail call ptr @dictGetVal(ptr noundef nonnull %6) #14
  %8 = getelementptr inbounds nuw i8, ptr %7, i64 224
  %9 = load ptr, ptr %8, align 8, !tbaa !69
  %.not15 = icmp eq ptr %9, null
  br i1 %.not15, label %38, label %10

10:                                               ; preds = %.lr.ph
  %11 = getelementptr inbounds nuw i8, ptr %7, i64 216
  %12 = load ptr, ptr %11, align 8, !tbaa !75
  %13 = getelementptr inbounds i8, ptr %12, i64 -1
  %14 = load i8, ptr %13, align 1, !tbaa !76
  %15 = zext i8 %14 to i32
  %16 = and i32 %15, 7
  switch i32 %16, label %sdslen.exit [
    i32 0, label %17
    i32 1, label %20
    i32 2, label %24
    i32 3, label %28
    i32 4, label %32
  ]

17:                                               ; preds = %10
  %18 = lshr i32 %15, 3
  %19 = zext nneg i32 %18 to i64
  br label %sdslen.exit

20:                                               ; preds = %10
  %21 = getelementptr inbounds i8, ptr %12, i64 -3
  %22 = load i8, ptr %21, align 1, !tbaa !76
  %23 = zext i8 %22 to i64
  br label %sdslen.exit

24:                                               ; preds = %10
  %25 = getelementptr inbounds i8, ptr %12, i64 -5
  %26 = load i16, ptr %25, align 1, !tbaa !77
  %27 = zext i16 %26 to i64
  br label %sdslen.exit

28:                                               ; preds = %10
  %29 = getelementptr inbounds i8, ptr %12, i64 -9
  %30 = load i32, ptr %29, align 1, !tbaa !79
  %31 = zext i32 %30 to i64
  br label %sdslen.exit

32:                                               ; preds = %10
  %33 = getelementptr inbounds i8, ptr %12, i64 -17
  %34 = load i64, ptr %33, align 1, !tbaa !56
  br label %sdslen.exit

sdslen.exit:                                      ; preds = %10, %17, %20, %24, %28, %32
  %.0.i = phi i64 [ %34, %32 ], [ %31, %28 ], [ %27, %24 ], [ %23, %20 ], [ %19, %17 ], [ 0, %10 ]
  tail call void @addReplyBulkCBuffer(ptr noundef %0, ptr noundef nonnull %12, i64 noundef %.0.i) #14
  %35 = load ptr, ptr %8, align 8, !tbaa !69
  tail call void @fillCommandCDF(ptr noundef %0, ptr noundef %35)
  %36 = load i32, ptr %2, align 4, !tbaa !79
  %37 = add nsw i32 %36, 1
  store i32 %37, ptr %2, align 4, !tbaa !79
  br label %38

38:                                               ; preds = %sdslen.exit, %.lr.ph
  %39 = getelementptr inbounds nuw i8, ptr %7, i64 160
  %40 = load ptr, ptr %39, align 8, !tbaa !80
  %.not16 = icmp eq ptr %40, null
  br i1 %.not16, label %44, label %41

41:                                               ; preds = %38
  %42 = getelementptr inbounds nuw i8, ptr %7, i64 288
  %43 = load ptr, ptr %42, align 8, !tbaa !81
  tail call void @latencyAllCommandsFillCDF(ptr noundef %0, ptr noundef %43, ptr noundef %2)
  br label %44

44:                                               ; preds = %41, %38
  %45 = tail call ptr @dictNext(ptr noundef %4) #14
  %.not = icmp eq ptr %45, null
  br i1 %.not, label %._crit_edge, label %.lr.ph, !llvm.loop !82

._crit_edge:                                      ; preds = %44, %3
  tail call void @dictReleaseIterator(ptr noundef %4) #14
  ret void
}